target datalayout = "e-m:e-p270:32:32-p271:32:32-p272:64:64-i64:64-i128:128-f80:128-n8:16:32:64-S128"
target triple = "x86_64-pc-linux-gnu"

%struct.t_mde_delta_h_coll = type { %"class.std::vector", i32, i32, i32, i32, i32, i32, i32, i32, double, double, i8, double, double, double, %"class.std::vector.0", i32, %"class.std::vector.5", i32, %"class.std::vector.0", %"class.std::vector.5" }
%"class.std::vector" = type { %"struct.std::_Vector_base" }
%"struct.std::_Vector_base" = type { %"struct.std::_Vector_base<t_mde_delta_h, std::allocator<t_mde_delta_h>>::_Vector_impl" }
%"struct.std::_Vector_base<t_mde_delta_h, std::allocator<t_mde_delta_h>>::_Vector_impl" = type { %"struct.std::_Vector_base<t_mde_delta_h, std::allocator<t_mde_delta_h>>::_Vector_impl_data" }
%"struct.std::_Vector_base<t_mde_delta_h, std::allocator<t_mde_delta_h>>::_Vector_impl_data" = type { ptr, ptr, ptr }
%"class.std::vector.0" = type { %"struct.std::_Vector_base.1" }
%"struct.std::_Vector_base.1" = type { %"struct.std::_Vector_base<double, std::allocator<double>>::_Vector_impl" }
%"struct.std::_Vector_base<double, std::allocator<double>>::_Vector_impl" = type { %"struct.std::_Vector_base<double, std::allocator<double>>::_Vector_impl_data" }
%"struct.std::_Vector_base<double, std::allocator<double>>::_Vector_impl_data" = type { ptr, ptr, ptr }
%"class.std::vector.5" = type { %"struct.std::_Vector_base.6" }
%"struct.std::_Vector_base.6" = type { %"struct.std::_Vector_base<int, std::allocator<int>>::_Vector_impl" }
%"struct.std::_Vector_base<int, std::allocator<int>>::_Vector_impl" = type { %"struct.std::_Vector_base<int, std::allocator<int>>::_Vector_impl_data" }
%"struct.std::_Vector_base<int, std::allocator<int>>::_Vector_impl_data" = type { ptr, ptr, ptr }
%"class.std::vector.71" = type { %"struct.std::_Vector_base.72" }
%"struct.std::_Vector_base.72" = type { %"struct.std::_Vector_base<float, std::allocator<float>>::_Vector_impl" }
%"struct.std::_Vector_base<float, std::allocator<float>>::_Vector_impl" = type { %"struct.std::_Vector_base<float, std::allocator<float>>::_Vector_impl_data" }
%"struct.std::_Vector_base<float, std::allocator<float>>::_Vector_impl_data" = type { ptr, ptr, ptr }
%struct.t_mde_delta_h = type { %"class.std::vector.71", %"class.std::vector.71", i32, i32, i32, %"struct.std::array", double, i32, %"struct.std::array.76", %"struct.std::array.77", i32, i32, %"class.std::vector.0", i32, i8, %"struct.std::array.78", %"class.std::vector.0", %"struct.std::array.79" }
%"struct.std::array" = type { [2 x %"class.std::vector.5"] }
%"struct.std::array.76" = type { [2 x i64] }
%"struct.std::array.77" = type { [2 x i32] }
%"struct.std::array.78" = type { [5 x i64] }
%"struct.std::array.79" = type { [4 x i32] }
%class.delta_h_history_t = type <{ %"class.std::vector.100", double, double, i8, [7 x i8] }>
%"class.std::vector.100" = type { %"struct.std::_Vector_base.101" }
%"struct.std::_Vector_base.101" = type { %"struct.std::_Vector_base<std::vector<float>, std::allocator<std::vector<float>>>::_Vector_impl" }
%"struct.std::_Vector_base<std::vector<float>, std::allocator<std::vector<float>>>::_Vector_impl" = type { %"struct.std::_Vector_base<std::vector<float>, std::allocator<std::vector<float>>>::_Vector_impl_data" }
%"struct.std::_Vector_base<std::vector<float>, std::allocator<std::vector<float>>>::_Vector_impl_data" = type { ptr, ptr, ptr }
%class.anon.106 = type { i8 }
%class.anon.108 = type { i8 }
%class.anon.110 = type { i8 }

@.str.1 = private unnamed_addr constant [126 x i8] c"generated/home/dtcxzyw/WorkSpace/Projects/compilers/llvm-opt-benchmark/bench/gromacs/gromacs/src/gromacs/mdlib/mdebin_bar.cpp\00", align 1
@.str.6 = private unnamed_addr constant [51 x i8] c"deltaH->dh.size() == static_cast<size_t>(dhc->ndh)\00", align 1
@.str.7 = private unnamed_addr constant [75 x i8] c"energy history number of delta_h histograms should match inputrec's number\00", align 1
@.str.9 = private unnamed_addr constant [4 x i8] c"dhc\00", align 1
@.str.10 = private unnamed_addr constant [31 x i8] c"Should have delta_h histograms\00", align 1
@.str.11 = private unnamed_addr constant [7 x i8] c"deltaH\00", align 1
@.str.12 = private unnamed_addr constant [49 x i8] c"Should have delta_h histograms in energy history\00", align 1

; Function Attrs: mustprogress nounwind uwtable
define linkonce_odr noundef nonnull align 4 dereferenceable(4) ptr @_ZNSt6vectorIfSaIfEEixEm(ptr noundef nonnull align 8 dereferenceable(24) %0, i64 noundef %1) #1 comdat align 2 {
  %3 = alloca ptr, align 8
  %4 = alloca i64, align 8
  store ptr %0, ptr %3, align 8, !tbaa !286
  store i64 %1, ptr %4, align 8, !tbaa !197
  %5 = load ptr, ptr %3, align 8
  %6 = getelementptr inbounds nuw %"struct.std::_Vector_base.72", ptr %5, i32 0, i32 0
  %7 = getelementptr inbounds nuw %"struct.std::_Vector_base<float, std::allocator<float>>::_Vector_impl_data", ptr %6, i32 0, i32 0
  %8 = load ptr, ptr %7, align 8, !tbaa !298
  %9 = load i64, ptr %4, align 8, !tbaa !197
  %10 = getelementptr inbounds nuw float, ptr %8, i64 %9
  ret ptr %10
}

; Function Attrs: mustprogress nounwind uwtable
define linkonce_odr noundef nonnull align 4 dereferenceable(4) ptr @_ZNKSt6vectorIfSaIfEEixEm(ptr noundef nonnull align 8 dereferenceable(24) %0, i64 noundef %1) #1 comdat align 2 {
  %3 = alloca ptr, align 8
  %4 = alloca i64, align 8
  store ptr %0, ptr %3, align 8, !tbaa !286
  store i64 %1, ptr %4, align 8, !tbaa !197
  %5 = load ptr, ptr %3, align 8
  %6 = getelementptr inbounds nuw %"struct.std::_Vector_base.72", ptr %5, i32 0, i32 0
  %7 = getelementptr inbounds nuw %"struct.std::_Vector_base<float, std::allocator<float>>::_Vector_impl_data", ptr %6, i32 0, i32 0
  %8 = load ptr, ptr %7, align 8, !tbaa !298
  %9 = load i64, ptr %4, align 8, !tbaa !197
  %10 = getelementptr inbounds nuw float, ptr %8, i64 %9
  ret ptr %10
}

; Function Attrs: mustprogress nounwind uwtable
define linkonce_odr noundef nonnull align 8 dereferenceable(272) ptr @_ZNSt6vectorI13t_mde_delta_hSaIS0_EEixEm(ptr noundef nonnull align 8 dereferenceable(24) %0, i64 noundef %1) #1 comdat align 2 {
  %3 = alloca ptr, align 8
  %4 = alloca i64, align 8
  store ptr %0, ptr %3, align 8, !tbaa !179
  store i64 %1, ptr %4, align 8, !tbaa !197
  %5 = load ptr, ptr %3, align 8
  %6 = getelementptr inbounds nuw %"struct.std::_Vector_base", ptr %5, i32 0, i32 0
  %7 = getelementptr inbounds nuw %"struct.std::_Vector_base<t_mde_delta_h, std::allocator<t_mde_delta_h>>::_Vector_impl_data", ptr %6, i32 0, i32 0
  %8 = load ptr, ptr %7, align 8, !tbaa !204
  %9 = load i64, ptr %4, align 8, !tbaa !197
  %10 = getelementptr inbounds nuw %struct.t_mde_delta_h, ptr %8, i64 %9
  ret ptr %10
}

; Function Attrs: mustprogress nounwind uwtable
define linkonce_odr noundef i64 @_ZNKSt6vectorIfSaIfEE4sizeEv(ptr noundef nonnull align 8 dereferenceable(24) %0) #1 comdat align 2 {
  %2 = alloca ptr, align 8
  store ptr %0, ptr %2, align 8, !tbaa !286
  %3 = load ptr, ptr %2, align 8
  %4 = getelementptr inbounds nuw %"struct.std::_Vector_base.72", ptr %3, i32 0, i32 0
  %5 = getelementptr inbounds nuw %"struct.std::_Vector_base<float, std::allocator<float>>::_Vector_impl_data", ptr %4, i32 0, i32 1
  %6 = load ptr, ptr %5, align 8, !tbaa !299
  %7 = getelementptr inbounds nuw %"struct.std::_Vector_base.72", ptr %3, i32 0, i32 0
  %8 = getelementptr inbounds nuw %"struct.std::_Vector_base<float, std::allocator<float>>::_Vector_impl_data", ptr %7, i32 0, i32 0
  %9 = load ptr, ptr %8, align 8, !tbaa !298
  %10 = ptrtoint ptr %6 to i64
  %11 = ptrtoint ptr %9 to i64
  %12 = sub i64 %10, %11
  %13 = sdiv exact i64 %12, 4
  ret i64 %13
}

; Function Attrs: mustprogress nounwind uwtable
define linkonce_odr noundef nonnull align 8 dereferenceable(24) ptr @_ZNKSt6vectorIS_IfSaIfEESaIS1_EEixEm(ptr noundef nonnull align 8 dereferenceable(24) %0, i64 noundef %1) #1 comdat align 2 {
  %3 = alloca ptr, align 8
  %4 = alloca i64, align 8
  store ptr %0, ptr %3, align 8, !tbaa !437
  store i64 %1, ptr %4, align 8, !tbaa !197
  %5 = load ptr, ptr %3, align 8
  %6 = getelementptr inbounds nuw %"struct.std::_Vector_base.101", ptr %5, i32 0, i32 0
  %7 = getelementptr inbounds nuw %"struct.std::_Vector_base<std::vector<float>, std::allocator<std::vector<float>>>::_Vector_impl_data", ptr %6, i32 0, i32 0
  %8 = load ptr, ptr %7, align 8, !tbaa !439
  %9 = load i64, ptr %4, align 8, !tbaa !197
  %10 = getelementptr inbounds nuw %"class.std::vector.71", ptr %8, i64 %9
  ret ptr %10
}

; Function Attrs: mustprogress nounwind uwtable
define linkonce_odr noundef i64 @_ZN3gmx5ssizeISt6vectorIS1_IfSaIfEESaIS3_EEEElRKT_(ptr noundef nonnull align 8 dereferenceable(24) %0) #1 comdat {
  %2 = alloca ptr, align 8
  store ptr %0, ptr %2, align 8, !tbaa !437
  %3 = load ptr, ptr %2, align 8, !tbaa !437
  %4 = call noundef i64 @_ZNKSt6vectorIS_IfSaIfEESaIS1_EE4sizeEv(ptr noundef nonnull align 8 dereferenceable(24) %3) #17
  ret i64 %4
}

; Function Attrs: inlinehint mustprogress uwtable
define internal void @"_ZZ38mde_delta_h_coll_restore_energyhistoryP18t_mde_delta_h_collPK17delta_h_history_tENK3$_2clEv"(ptr noundef nonnull align 1 dereferenceable(1) %0) #5 align 2 {
  %2 = alloca ptr, align 8
  store ptr %0, ptr %2, align 8, !tbaa !205
  call void @_ZN3gmx8internal13assertHandlerEPKcS2_S2_S2_i(ptr noundef @.str.6, ptr noundef @.str.7, ptr noundef @"__PRETTY_FUNCTION__._ZZ38mde_delta_h_coll_restore_energyhistoryP18t_mde_delta_h_collPK17delta_h_history_tENK3$_0clEv", ptr noundef @.str.1, i32 noundef 747) #19
  unreachable
}

; Function Attrs: mustprogress nounwind uwtable
define linkonce_odr noundef i64 @_ZNKSt6vectorIS_IfSaIfEESaIS1_EE4sizeEv(ptr noundef nonnull align 8 dereferenceable(24) %0) #1 comdat align 2 {
  %2 = alloca ptr, align 8
  store ptr %0, ptr %2, align 8, !tbaa !437
  %3 = load ptr, ptr %2, align 8
  %4 = getelementptr inbounds nuw %"struct.std::_Vector_base.101", ptr %3, i32 0, i32 0
  %5 = getelementptr inbounds nuw %"struct.std::_Vector_base<std::vector<float>, std::allocator<std::vector<float>>>::_Vector_impl_data", ptr %4, i32 0, i32 1
  %6 = load ptr, ptr %5, align 8, !tbaa !440
  %7 = getelementptr inbounds nuw %"struct.std::_Vector_base.101", ptr %3, i32 0, i32 0
  %8 = getelementptr inbounds nuw %"struct.std::_Vector_base<std::vector<float>, std::allocator<std::vector<float>>>::_Vector_impl_data", ptr %7, i32 0, i32 0
  %9 = load ptr, ptr %8, align 8, !tbaa !439
  %10 = ptrtoint ptr %6 to i64
  %11 = ptrtoint ptr %9 to i64
  %12 = sub i64 %10, %11
  %13 = sdiv exact i64 %12, 24
  ret i64 %13
}

; Function Attrs: inlinehint mustprogress uwtable
define internal void @"_ZZ38mde_delta_h_coll_restore_energyhistoryP18t_mde_delta_h_collPK17delta_h_history_tENK3$_1clEv"(ptr noundef nonnull align 1 dereferenceable(1) %0) #5 align 2 {
  %2 = alloca ptr, align 8
  store ptr %0, ptr %2, align 8, !tbaa !205
  call void @_ZN3gmx8internal13assertHandlerEPKcS2_S2_S2_i(ptr noundef @.str.11, ptr noundef @.str.12, ptr noundef @"__PRETTY_FUNCTION__._ZZ38mde_delta_h_coll_restore_energyhistoryP18t_mde_delta_h_collPK17delta_h_history_tENK3$_0clEv", ptr noundef @.str.1, i32 noundef 744) #19
  unreachable
}

; Function Attrs: inlinehint mustprogress uwtable
define internal void @"_ZZ38mde_delta_h_coll_restore_energyhistoryP18t_mde_delta_h_collPK17delta_h_history_tENK3$_0clEv"(ptr noundef nonnull align 1 dereferenceable(1) %0) #5 align 2 {
  %2 = alloca ptr, align 8
  store ptr %0, ptr %2, align 8, !tbaa !205
  call void @_ZN3gmx8internal13assertHandlerEPKcS2_S2_S2_i(ptr noundef @.str.9, ptr noundef @.str.10, ptr noundef @"__PRETTY_FUNCTION__._ZZ38mde_delta_h_coll_restore_energyhistoryP18t_mde_delta_h_collPK17delta_h_history_tENK3$_0clEv", ptr noundef @.str.1, i32 noundef 743) #19
  unreachable
}

; Function Attrs: mustprogress uwtable
define void @_Z38mde_delta_h_coll_restore_energyhistoryP18t_mde_delta_h_collPK17delta_h_history_t(ptr noundef %0, ptr noundef %1) #0 {
  %3 = alloca ptr, align 8
  %4 = alloca ptr, align 8
  %5 = alloca %class.anon.106, align 1
  %6 = alloca %class.anon.108, align 1
  %7 = alloca %class.anon.110, align 1
  %8 = alloca i64, align 8
  %9 = alloca i32, align 4
  %10 = alloca i32, align 4
  store ptr %0, ptr %3, align 8, !tbaa !4
  store ptr %1, ptr %4, align 8, !tbaa !420
  %11 = load ptr, ptr %3, align 8, !tbaa !4
  %12 = icmp ne ptr %11, null
  call void @llvm.lifetime.start.p0(i64 1, ptr %5) #17
  br i1 %12, label %13, label %14

13:                                               ; preds = %2
  br label %15

14:                                               ; preds = %2
  call void @"_ZZ38mde_delta_h_coll_restore_energyhistoryP18t_mde_delta_h_collPK17delta_h_history_tENK3$_0clEv"(ptr noundef nonnull align 1 dereferenceable(1) %5)
  br label %15

15:                                               ; preds = %14, %13
  call void @llvm.lifetime.end.p0(i64 1, ptr %5) #17
  %16 = load ptr, ptr %4, align 8, !tbaa !420
  %17 = icmp ne ptr %16, null
  call void @llvm.lifetime.start.p0(i64 1, ptr %6) #17
  br i1 %17, label %18, label %19

18:                                               ; preds = %15
  br label %20

19:                                               ; preds = %15
  call void @"_ZZ38mde_delta_h_coll_restore_energyhistoryP18t_mde_delta_h_collPK17delta_h_history_tENK3$_1clEv"(ptr noundef nonnull align 1 dereferenceable(1) %6)
  br label %20

20:                                               ; preds = %19, %18
  call void @llvm.lifetime.end.p0(i64 1, ptr %6) #17
  %21 = load ptr, ptr %4, align 8, !tbaa !420
  %22 = getelementptr inbounds nuw %class.delta_h_history_t, ptr %21, i32 0, i32 0
  %23 = call noundef i64 @_ZNKSt6vectorIS_IfSaIfEESaIS1_EE4sizeEv(ptr noundef nonnull align 8 dereferenceable(24) %22) #17
  %24 = load ptr, ptr %3, align 8, !tbaa !4
  %25 = getelementptr inbounds nuw %struct.t_mde_delta_h_coll, ptr %24, i32 0, i32 1
  %26 = load i32, ptr %25, align 8, !tbaa !157
  %27 = sext i32 %26 to i64
  %28 = icmp eq i64 %23, %27
  call void @llvm.lifetime.start.p0(i64 1, ptr %7) #17
  br i1 %28, label %29, label %30

29:                                               ; preds = %20
  br label %31

30:                                               ; preds = %20
  call void @"_ZZ38mde_delta_h_coll_restore_energyhistoryP18t_mde_delta_h_collPK17delta_h_history_tENK3$_2clEv"(ptr noundef nonnull align 1 dereferenceable(1) %7)
  br label %31

31:                                               ; preds = %30, %29
  call void @llvm.lifetime.end.p0(i64 1, ptr %7) #17
  call void @llvm.lifetime.start.p0(i64 8, ptr %8) #17
  store i64 0, ptr %8, align 8, !tbaa !197
  br label %32

32:                                               ; preds = %82, %31
  %33 = load i64, ptr %8, align 8, !tbaa !197
  %34 = load ptr, ptr %4, align 8, !tbaa !420
  %35 = getelementptr inbounds nuw %class.delta_h_history_t, ptr %34, i32 0, i32 0
  %36 = call noundef i64 @_ZN3gmx5ssizeISt6vectorIS1_IfSaIfEESaIS3_EEEElRKT_(ptr noundef nonnull align 8 dereferenceable(24) %35)
  %37 = icmp slt i64 %33, %36
  br i1 %37, label %39, label %38

38:                                               ; preds = %32
  store i32 2, ptr %9, align 4
  call void @llvm.lifetime.end.p0(i64 8, ptr %8) #17
  br label %85

39:                                               ; preds = %32
  %40 = load ptr, ptr %4, align 8, !tbaa !420
  %41 = getelementptr inbounds nuw %class.delta_h_history_t, ptr %40, i32 0, i32 0
  %42 = load i64, ptr %8, align 8, !tbaa !197
  %43 = call noundef nonnull align 8 dereferenceable(24) ptr @_ZNKSt6vectorIS_IfSaIfEESaIS1_EEixEm(ptr noundef nonnull align 8 dereferenceable(24) %41, i64 noundef %42) #17
  %44 = call noundef i64 @_ZNKSt6vectorIfSaIfEE4sizeEv(ptr noundef nonnull align 8 dereferenceable(24) %43) #17
  %45 = trunc i64 %44 to i32
  %46 = load ptr, ptr %3, align 8, !tbaa !4
  %47 = getelementptr inbounds nuw %struct.t_mde_delta_h_coll, ptr %46, i32 0, i32 0
  %48 = load i64, ptr %8, align 8, !tbaa !197
  %49 = call noundef nonnull align 8 dereferenceable(272) ptr @_ZNSt6vectorI13t_mde_delta_hSaIS0_EEixEm(ptr noundef nonnull align 8 dereferenceable(24) %47, i64 noundef %48) #17
  %50 = getelementptr inbounds nuw %struct.t_mde_delta_h, ptr %49, i32 0, i32 2
  store i32 %45, ptr %50, align 8, !tbaa !308
  call void @llvm.lifetime.start.p0(i64 4, ptr %10) #17
  store i32 0, ptr %10, align 4, !tbaa !107
  br label %51

51:                                               ; preds = %78, %39
  %52 = load i32, ptr %10, align 4, !tbaa !107
  %53 = load ptr, ptr %3, align 8, !tbaa !4
  %54 = getelementptr inbounds nuw %struct.t_mde_delta_h_coll, ptr %53, i32 0, i32 0
  %55 = load i64, ptr %8, align 8, !tbaa !197
  %56 = call noundef nonnull align 8 dereferenceable(272) ptr @_ZNSt6vectorI13t_mde_delta_hSaIS0_EEixEm(ptr noundef nonnull align 8 dereferenceable(24) %54, i64 noundef %55) #17
  %57 = getelementptr inbounds nuw %struct.t_mde_delta_h, ptr %56, i32 0, i32 2
  %58 = load i32, ptr %57, align 8, !tbaa !308
  %59 = icmp ult i32 %52, %58
  br i1 %59, label %61, label %60

60:                                               ; preds = %51
  store i32 5, ptr %9, align 4
  call void @llvm.lifetime.end.p0(i64 4, ptr %10) #17
  br label %81

61:                                               ; preds = %51
  %62 = load ptr, ptr %4, align 8, !tbaa !420
  %63 = getelementptr inbounds nuw %class.delta_h_history_t, ptr %62, i32 0, i32 0
  %64 = load i64, ptr %8, align 8, !tbaa !197
  %65 = call noundef nonnull align 8 dereferenceable(24) ptr @_ZNKSt6vectorIS_IfSaIfEESaIS1_EEixEm(ptr noundef nonnull align 8 dereferenceable(24) %63, i64 noundef %64) #17
  %66 = load i32, ptr %10, align 4, !tbaa !107
  %67 = zext i32 %66 to i64
  %68 = call noundef nonnull align 4 dereferenceable(4) ptr @_ZNKSt6vectorIfSaIfEEixEm(ptr noundef nonnull align 8 dereferenceable(24) %65, i64 noundef %67) #17
  %69 = load float, ptr %68, align 4, !tbaa !310
  %70 = load ptr, ptr %3, align 8, !tbaa !4
  %71 = getelementptr inbounds nuw %struct.t_mde_delta_h_coll, ptr %70, i32 0, i32 0
  %72 = load i64, ptr %8, align 8, !tbaa !197
  %73 = call noundef nonnull align 8 dereferenceable(272) ptr @_ZNSt6vectorI13t_mde_delta_hSaIS0_EEixEm(ptr noundef nonnull align 8 dereferenceable(24) %71, i64 noundef %72) #17
  %74 = getelementptr inbounds nuw %struct.t_mde_delta_h, ptr %73, i32 0, i32 0
  %75 = load i32, ptr %10, align 4, !tbaa !107
  %76 = zext i32 %75 to i64
  %77 = call noundef nonnull align 4 dereferenceable(4) ptr @_ZNSt6vectorIfSaIfEEixEm(ptr noundef nonnull align 8 dereferenceable(24) %74, i64 noundef %76) #17
  store float %69, ptr %77, align 4, !tbaa !310
  br label %78

78:                                               ; preds = %61
  %79 = load i32, ptr %10, align 4, !tbaa !107
  %80 = add i32 %79, 1
  store i32 %80, ptr %10, align 4, !tbaa !107
  br label %51, !llvm.loop !478

81:                                               ; preds = %60
  br label %82

82:                                               ; preds = %81
  %83 = load i64, ptr %8, align 8, !tbaa !197
  %84 = add nsw i64 %83, 1
  store i64 %84, ptr %8, align 8, !tbaa !197
  br label %32, !llvm.loop !479

85:                                               ; preds = %38
  %86 = load ptr, ptr %4, align 8, !tbaa !420
  %87 = getelementptr inbounds nuw %class.delta_h_history_t, ptr %86, i32 0, i32 1
  %88 = load double, ptr %87, align 8, !tbaa !424
  %89 = load ptr, ptr %3, align 8, !tbaa !4
  %90 = getelementptr inbounds nuw %struct.t_mde_delta_h_coll, ptr %89, i32 0, i32 9
  store double %88, ptr %90, align 8, !tbaa !124
  %91 = load ptr, ptr %4, align 8, !tbaa !420
  %92 = getelementptr inbounds nuw %class.delta_h_history_t, ptr %91, i32 0, i32 3
  %93 = load i8, ptr %92, align 8, !tbaa !441, !range !148, !noundef !149
  %94 = trunc i8 %93 to i1
  br i1 %94, label %95, label %101

95:                                               ; preds = %85
  %96 = load ptr, ptr %4, align 8, !tbaa !420
  %97 = getelementptr inbounds nuw %class.delta_h_history_t, ptr %96, i32 0, i32 2
  %98 = load double, ptr %97, align 8, !tbaa !430
  %99 = load ptr, ptr %3, align 8, !tbaa !4
  %100 = getelementptr inbounds nuw %struct.t_mde_delta_h_coll, ptr %99, i32 0, i32 12
  store double %98, ptr %100, align 8, !tbaa !137
  br label %101

101:                                              ; preds = %95, %85
  %102 = load ptr, ptr %3, align 8, !tbaa !4
  %103 = getelementptr inbounds nuw %struct.t_mde_delta_h_coll, ptr %102, i32 0, i32 0
  %104 = call noundef nonnull align 8 dereferenceable(272) ptr @_ZNSt6vectorI13t_mde_delta_hSaIS0_EEixEm(ptr noundef nonnull align 8 dereferenceable(24) %103, i64 noundef 0) #17
  %105 = getelementptr inbounds nuw %struct.t_mde_delta_h, ptr %104, i32 0, i32 2
  %106 = load i32, ptr %105, align 8, !tbaa !308
  %107 = icmp ugt i32 %106, 0
  %108 = load ptr, ptr %3, align 8, !tbaa !4
  %109 = getelementptr inbounds nuw %struct.t_mde_delta_h_coll, ptr %108, i32 0, i32 11
  %110 = zext i1 %107 to i8
  store i8 %110, ptr %109, align 8, !tbaa !135
  ret void
}