; Function Attrs: mustprogress uwtable
define void @_Z38mde_delta_h_coll_restore_energyhistoryP18t_mde_delta_h_collPK17delta_h_history_t(ptr noundef %0, ptr noundef readonly %1) local_unnamed_addr #0 {
  %.not = icmp eq ptr %0, null
  br i1 %.not, label %3, label %4

3:                                                ; preds = %2
  tail call void @_ZN3gmx8internal13assertHandlerEPKcS2_S2_S2_i(ptr noundef nonnull @.str.9, ptr noundef nonnull @.str.10, ptr noundef nonnull @"__PRETTY_FUNCTION__._ZZ38mde_delta_h_coll_restore_energyhistoryP18t_mde_delta_h_collPK17delta_h_history_tENK3$_0clEv", ptr noundef nonnull @.str.1, i32 noundef 743) #21
  unreachable

4:                                                ; preds = %2
  %.not28 = icmp eq ptr %1, null
  br i1 %.not28, label %5, label %6

5:                                                ; preds = %4
  tail call void @_ZN3gmx8internal13assertHandlerEPKcS2_S2_S2_i(ptr noundef nonnull @.str.11, ptr noundef nonnull @.str.12, ptr noundef nonnull @"__PRETTY_FUNCTION__._ZZ38mde_delta_h_coll_restore_energyhistoryP18t_mde_delta_h_collPK17delta_h_history_tENK3$_0clEv", ptr noundef nonnull @.str.1, i32 noundef 744) #21
  unreachable

6:                                                ; preds = %4
  %7 = getelementptr inbounds nuw i8, ptr %1, i64 8
  %8 = load ptr, ptr %7, align 8, !tbaa !259
  %9 = load ptr, ptr %1, align 8, !tbaa !262
  %10 = ptrtoint ptr %8 to i64
  %11 = ptrtoint ptr %9 to i64
  %12 = sub i64 %10, %11
  %13 = sdiv exact i64 %12, 24
  %14 = getelementptr inbounds nuw i8, ptr %0, i64 24
  %15 = load i32, ptr %14, align 8, !tbaa !153
  %16 = sext i32 %15 to i64
  %17 = icmp eq i64 %13, %16
  br i1 %17, label %.preheader, label %20

.preheader:                                       ; preds = %6
  %18 = icmp sgt i64 %12, 0
  br i1 %18, label %.lr.ph33, label %._crit_edge34

.lr.ph33:                                         ; preds = %.preheader
  %19 = load ptr, ptr %0, align 8, !tbaa !170
  %smax = tail call i64 @llvm.smax.i64(i64 %13, i64 1)
  br label %27

20:                                               ; preds = %6
  tail call void @_ZN3gmx8internal13assertHandlerEPKcS2_S2_S2_i(ptr noundef nonnull @.str.6, ptr noundef nonnull @.str.7, ptr noundef nonnull @"__PRETTY_FUNCTION__._ZZ38mde_delta_h_coll_restore_energyhistoryP18t_mde_delta_h_collPK17delta_h_history_tENK3$_0clEv", ptr noundef nonnull @.str.1, i32 noundef 747) #21
  unreachable

._crit_edge34:                                    ; preds = %._crit_edge, %.preheader
  %21 = getelementptr inbounds nuw i8, ptr %1, i64 24
  %22 = load double, ptr %21, align 8, !tbaa !263
  %23 = getelementptr inbounds nuw i8, ptr %0, i64 56
  store double %22, ptr %23, align 8, !tbaa !119
  %24 = getelementptr inbounds nuw i8, ptr %1, i64 40
  %25 = load i8, ptr %24, align 8, !tbaa !278, !range !141, !noundef !142
  %26 = trunc nuw i8 %25 to i1
  br i1 %26, label %45, label %49

27:                                               ; preds = %.lr.ph33, %._crit_edge
  %.02732 = phi i64 [ 0, %.lr.ph33 ], [ %40, %._crit_edge ]
  %28 = getelementptr inbounds nuw %"class.std::vector.71", ptr %9, i64 %.02732
  %29 = getelementptr inbounds nuw i8, ptr %28, i64 8
  %30 = load ptr, ptr %29, align 8, !tbaa !190
  %31 = load ptr, ptr %28, align 8, !tbaa !191
  %32 = ptrtoint ptr %30 to i64
  %33 = ptrtoint ptr %31 to i64
  %34 = sub i64 %32, %33
  %35 = lshr exact i64 %34, 2
  %36 = trunc i64 %35 to i32
  %37 = getelementptr inbounds nuw %struct.t_mde_delta_h, ptr %19, i64 %.02732
  %38 = getelementptr inbounds nuw i8, ptr %37, i64 48
  store i32 %36, ptr %38, align 8, !tbaa !196
  %.not35 = icmp eq i32 %36, 0
  br i1 %.not35, label %._crit_edge, label %.lr.ph

.lr.ph:                                           ; preds = %27
  %39 = load ptr, ptr %37, align 8, !tbaa !191
  %wide.trip.count = and i64 %35, 4294967295
  br label %41

._crit_edge:                                      ; preds = %41, %27
  %40 = add nuw nsw i64 %.02732, 1
  %exitcond37.not = icmp eq i64 %40, %smax
  br i1 %exitcond37.not, label %._crit_edge34, label %27, !llvm.loop !279

41:                                               ; preds = %.lr.ph, %41
  %indvars.iv = phi i64 [ 0, %.lr.ph ], [ %indvars.iv.next, %41 ]
  %42 = getelementptr inbounds nuw float, ptr %31, i64 %indvars.iv
  %43 = load float, ptr %42, align 4, !tbaa !210
  %44 = getelementptr inbounds nuw float, ptr %39, i64 %indvars.iv
  store float %43, ptr %44, align 4, !tbaa !210
  %indvars.iv.next = add nuw nsw i64 %indvars.iv, 1
  %exitcond.not = icmp eq i64 %indvars.iv.next, %wide.trip.count
  br i1 %exitcond.not, label %._crit_edge, label %41, !llvm.loop !280

45:                                               ; preds = %._crit_edge34
  %46 = getelementptr inbounds nuw i8, ptr %1, i64 32
  %47 = load double, ptr %46, align 8, !tbaa !268
  %48 = getelementptr inbounds nuw i8, ptr %0, i64 80
  store double %47, ptr %48, align 8, !tbaa !132
  br label %49

49:                                               ; preds = %45, %._crit_edge34
  %50 = load ptr, ptr %0, align 8, !tbaa !170
  %51 = getelementptr inbounds nuw i8, ptr %50, i64 48
  %52 = load i32, ptr %51, align 8, !tbaa !196
  %53 = icmp ne i32 %52, 0
  %54 = getelementptr inbounds nuw i8, ptr %0, i64 72
  %55 = zext i1 %53 to i8
  store i8 %55, ptr %54, align 8, !tbaa !130
  ret void
}